; Function Attrs: mustprogress uwtable
define hidden void @_ZN15model_evaluator7cleanupERK10params_ref(ptr nocapture noundef nonnull readonly align 8 dereferenceable(8) %this, ptr noundef nonnull align 8 dereferenceable(8) %p) local_unnamed_addr #3 align 2 personality ptr @__gxx_personality_v0 {
entry:
  %0 = load ptr, ptr %this, align 8
  %m_cfg.i = getelementptr inbounds i8, ptr %0, i64 144
  %1 = load ptr, ptr %m_cfg.i, align 8
  %m_model = getelementptr inbounds i8, ptr %1, i64 8
  %2 = load ptr, ptr %m_model, align 8
  %vtable = load ptr, ptr %0, align 8
  %3 = load ptr, ptr %vtable, align 8
  tail call void %3(ptr noundef nonnull align 8 dereferenceable(2336) %0) #18
  %4 = load ptr, ptr %this, align 8
  store ptr getelementptr inbounds ({ [4 x ptr] }, ptr @_ZTVN15model_evaluator3impE, i64 0, i32 0, i64 2), ptr %4, align 8
  %m.i.i = getelementptr inbounds i8, ptr %2, i64 8
  %5 = load ptr, ptr %m.i.i, align 8
  %m_cfg.i1 = getelementptr inbounds i8, ptr %4, i64 536
  tail call void @_ZN12rewriter_tplIN3mev13evaluator_cfgEEC2ER11ast_managerbRS1_(ptr noundef nonnull align 8 dereferenceable(536) %4, ptr noundef nonnull align 8 dereferenceable(976) %5, i1 noundef zeroext false, ptr noundef nonnull align 8 dereferenceable(1800) %m_cfg.i1)
  store ptr getelementptr inbounds ({ [4 x ptr] }, ptr @_ZTVN15model_evaluator3impE, i64 0, i32 0, i64 2), ptr %4, align 8
  %6 = load ptr, ptr %m.i.i, align 8
  invoke void @_ZN3mev13evaluator_cfgC2ER11ast_managerR10model_coreRK10params_ref(ptr noundef nonnull align 8 dereferenceable(1800) %m_cfg.i1, ptr noundef nonnull align 8 dereferenceable(976) %6, ptr noundef nonnull align 8 dereferenceable(96) %2, ptr noundef nonnull align 8 dereferenceable(8) %p)
          to label %_ZN15model_evaluator3impC2ER10model_coreRK10params_ref.exit unwind label %lpad.i

lpad.i:                                           ; preds = %entry
  %7 = landingpad { ptr, i32 }
          cleanup
  tail call void @_ZN12rewriter_tplIN3mev13evaluator_cfgEED2Ev(ptr noundef nonnull align 8 dereferenceable(536) %4) #18
  resume { ptr, i32 } %7

_ZN15model_evaluator3impC2ER10model_coreRK10params_ref.exit: ; preds = %entry
  ret void
}